; Function Attrs: nounwind sspstrong uwtable
define ptr @cJSON_Parse(ptr noundef %0) local_unnamed_addr #8 {
  %2 = icmp eq ptr %0, null
  br i1 %2, label %cJSON_ParseWithOpts.exit, label %3

3:                                                ; preds = %1
  %4 = tail call i64 @strlen(ptr noundef nonnull dereferenceable(1) %0) #32
  %5 = add i64 %4, 1
  %6 = tail call ptr @cJSON_ParseWithLengthOpts(ptr noundef nonnull %0, i64 noundef %5, ptr noundef null, i32 noundef 0)
  br label %cJSON_ParseWithOpts.exit

cJSON_ParseWithOpts.exit:                         ; preds = %1, %3
  %.0.i = phi ptr [ %6, %3 ], [ null, %1 ]
  ret ptr %.0.i
}